target datalayout = "e-m:e-p270:32:32-p271:32:32-p272:64:64-i64:64-i128:128-f80:128-n8:16:32:64-S128"
target triple = "x86_64-pc-linux-gnu"

@rb_eArgError = external global i64, align 8
@.str.20 = private unnamed_addr constant [7 x i8] c"\\x%.2x\00", align 1
@.str.21 = private unnamed_addr constant [36 x i8] c"unknown %s directive '%s' in '%li\0B'\00", align 1

; Function Attrs: inlinehint nounwind sspstrong willreturn memory(none) uwtable
define internal i32 @rb_isprint(i32 noundef %0) #6 {
  %2 = alloca i32, align 4
  store i32 %0, ptr %2, align 4, !tbaa !14
  %3 = load i32, ptr %2, align 4, !tbaa !14
  %4 = icmp sle i32 32, %3
  br i1 %4, label %5, label %8

5:                                                ; preds = %1
  %6 = load i32, ptr %2, align 4, !tbaa !14
  %7 = icmp sle i32 %6, 126
  br label %8

8:                                                ; preds = %5, %1
  %9 = phi i1 [ false, %1 ], [ %7, %5 ]
  %10 = zext i1 %9 to i32
  ret i32 %10
}

; Function Attrs: noreturn nounwind sspstrong uwtable
define internal void @unknown_directive(ptr noundef %0, i8 noundef signext %1, i64 noundef %2) #11 {
  %4 = alloca ptr, align 8
  %5 = alloca i8, align 1
  %6 = alloca i64, align 8
  %7 = alloca [5 x i8], align 1
  store ptr %0, ptr %4, align 8, !tbaa !16
  store i8 %1, ptr %5, align 1, !tbaa !18
  store i64 %2, ptr %6, align 8, !tbaa !12
  call void @llvm.lifetime.start.p0(i64 5, ptr %7) #20
  %8 = load i8, ptr %5, align 1, !tbaa !18
  %9 = sext i8 %8 to i32
  %10 = call i32 @rb_isprint(i32 noundef %9) #22
  %11 = icmp ne i32 %10, 0
  br i1 %11, label %12, label %16

12:                                               ; preds = %3
  %13 = load i8, ptr %5, align 1, !tbaa !18
  %14 = getelementptr [5 x i8], ptr %7, i64 0, i64 0
  store i8 %13, ptr %14, align 1, !tbaa !18
  %15 = getelementptr [5 x i8], ptr %7, i64 0, i64 1
  store i8 0, ptr %15, align 1, !tbaa !18
  br label %22

16:                                               ; preds = %3
  %17 = getelementptr inbounds [5 x i8], ptr %7, i64 0, i64 0
  %18 = load i8, ptr %5, align 1, !tbaa !18
  %19 = sext i8 %18 to i32
  %20 = and i32 %19, 255
  %21 = call i32 (ptr, i64, ptr, ...) @ruby_snprintf(ptr noundef %17, i64 noundef 5, ptr noundef @.str.20, i32 noundef %20)
  br label %22

22:                                               ; preds = %16, %12
  %23 = load i64, ptr %6, align 8, !tbaa !12
  %24 = call i64 @rb_str_quote_unprintable(i64 noundef %23)
  store i64 %24, ptr %6, align 8, !tbaa !12
  %25 = load i64, ptr @rb_eArgError, align 8, !tbaa !12
  %26 = load ptr, ptr %4, align 8, !tbaa !16
  %27 = getelementptr inbounds [5 x i8], ptr %7, i64 0, i64 0
  %28 = load i64, ptr %6, align 8, !tbaa !12
  call void (i64, ptr, ...) @rb_raise(i64 noundef %25, ptr noundef @.str.21, ptr noundef %26, ptr noundef %27, i64 noundef %28) #23
  unreachable
}