; Function Attrs: noreturn nounwind sspstrong uwtable
define internal fastcc void @unknown_directive(ptr noundef %0, i8 noundef signext %1, i64 noundef %2) unnamed_addr #6 {
  %4 = alloca [5 x i8], align 1
  call void @llvm.lifetime.start.p0(i64 5, ptr nonnull %4) #13
  %5 = sext i8 %1 to i32
  %6 = add nsw i32 %5, -127
  %7 = icmp ult i32 %6, -95
  br i1 %7, label %10, label %8

8:                                                ; preds = %3
  store i8 %1, ptr %4, align 1, !tbaa !26
  %9 = getelementptr inbounds nuw i8, ptr %4, i64 1
  store i8 0, ptr %9, align 1, !tbaa !26
  br label %13

10:                                               ; preds = %3
  %11 = and i32 %5, 255
  %12 = call i32 (ptr, i64, ptr, ...) @ruby_snprintf(ptr noundef nonnull %4, i64 noundef 5, ptr noundef nonnull @.str.20, i32 noundef %11) #13
  br label %13

13:                                               ; preds = %10, %8
  %14 = call i64 @rb_str_quote_unprintable(i64 noundef %2) #13
  %15 = load i64, ptr @rb_eArgError, align 8, !tbaa !7
  call void (i64, ptr, ...) @rb_raise(i64 noundef %15, ptr noundef nonnull @.str.21, ptr noundef %0, ptr noundef nonnull %4, i64 noundef %14) #14
  unreachable
}